; Function Attrs: mustprogress uwtable
define internal fastcc void @"_ZSt22__stable_sort_adaptiveISt16reverse_iteratorIN9__gnu_cxx17__normal_iteratorIPNSt7__cxx1112basic_stringIcSt11char_traitsIcESaIcEEESt6vectorIS8_SaIS8_EEEEES9_lNS1_5__ops15_Iter_comp_iterIZN12_GLOBAL__N_123BlockAllocationStrategy11InitialSortERKSt3mapIS8_N24cmCTestResourceAllocator8ResourceESt4lessIS8_ESaISt4pairIKS8_SL_EEERSC_E3$_0EEEvT_SY_T0_T1_T2_"(ptr noundef nonnull readonly captures(none) %0, ptr noundef nonnull readonly captures(none) %1, ptr noundef %2, i64 noundef %3, ptr %4) unnamed_addr #1 {
  %6 = alloca %"class.std::reverse_iterator.22", align 8
  %7 = alloca %"class.std::reverse_iterator.22", align 8
  %8 = alloca %"class.std::reverse_iterator.22", align 8
  %9 = alloca %"class.std::reverse_iterator.22", align 8
  %10 = alloca %"class.std::reverse_iterator.22", align 8
  %11 = alloca %"class.std::reverse_iterator.22", align 8
  %12 = alloca %"class.std::reverse_iterator.22", align 8
  %13 = alloca %"class.std::reverse_iterator.22", align 8
  %14 = alloca %"class.std::reverse_iterator.22", align 8
  %15 = alloca %"class.std::reverse_iterator.22", align 8
  %16 = alloca %"class.std::reverse_iterator.22", align 8
  %.sroa.0.0.copyload.i.i = load ptr, ptr %0, align 8
  %.sroa.0.0.copyload.i2.i = load ptr, ptr %1, align 8, !tbaa !37
  %17 = ptrtoint ptr %.sroa.0.0.copyload.i.i to i64
  %18 = ptrtoint ptr %.sroa.0.0.copyload.i2.i to i64
  %19 = sub i64 %17, %18
  %20 = ashr exact i64 %19, 5
  %21 = add nsw i64 %20, 1
  %22 = sdiv i64 %21, 2
  %23 = sub nsw i64 0, %22
  %24 = getelementptr inbounds %"class.std::__cxx11::basic_string", ptr %.sroa.0.0.copyload.i.i, i64 %23
  %25 = icmp sgt i64 %22, %3
  %26 = ptrtoint ptr %24 to i64
  br i1 %25, label %27, label %29

27:                                               ; preds = %5
  store i64 %17, ptr %6, align 8, !tbaa !37
  store i64 %26, ptr %7, align 8, !tbaa !37
  call fastcc void @"_ZSt22__stable_sort_adaptiveISt16reverse_iteratorIN9__gnu_cxx17__normal_iteratorIPNSt7__cxx1112basic_stringIcSt11char_traitsIcESaIcEEESt6vectorIS8_SaIS8_EEEEES9_lNS1_5__ops15_Iter_comp_iterIZN12_GLOBAL__N_123BlockAllocationStrategy11InitialSortERKSt3mapIS8_N24cmCTestResourceAllocator8ResourceESt4lessIS8_ESaISt4pairIKS8_SL_EEERSC_E3$_0EEEvT_SY_T0_T1_T2_"(ptr noundef %6, ptr noundef %7, ptr noundef %2, i64 noundef %3, ptr %4)
  store i64 %26, ptr %8, align 8, !tbaa !37
  %28 = load i64, ptr %1, align 8, !tbaa !37
  store i64 %28, ptr %9, align 8, !tbaa !37
  call fastcc void @"_ZSt22__stable_sort_adaptiveISt16reverse_iteratorIN9__gnu_cxx17__normal_iteratorIPNSt7__cxx1112basic_stringIcSt11char_traitsIcESaIcEEESt6vectorIS8_SaIS8_EEEEES9_lNS1_5__ops15_Iter_comp_iterIZN12_GLOBAL__N_123BlockAllocationStrategy11InitialSortERKSt3mapIS8_N24cmCTestResourceAllocator8ResourceESt4lessIS8_ESaISt4pairIKS8_SL_EEERSC_E3$_0EEEvT_SY_T0_T1_T2_"(ptr noundef %8, ptr noundef %9, ptr noundef %2, i64 noundef %3, ptr %4)
  br label %31

29:                                               ; preds = %5
  store i64 %17, ptr %10, align 8, !tbaa !37
  store i64 %26, ptr %11, align 8, !tbaa !37
  call fastcc void @"_ZSt24__merge_sort_with_bufferISt16reverse_iteratorIN9__gnu_cxx17__normal_iteratorIPNSt7__cxx1112basic_stringIcSt11char_traitsIcESaIcEEESt6vectorIS8_SaIS8_EEEEES9_NS1_5__ops15_Iter_comp_iterIZN12_GLOBAL__N_123BlockAllocationStrategy11InitialSortERKSt3mapIS8_N24cmCTestResourceAllocator8ResourceESt4lessIS8_ESaISt4pairIKS8_SL_EEERSC_E3$_0EEEvT_SY_T0_T1_"(ptr noundef %10, ptr noundef %11, ptr noundef %2, ptr %4)
  store i64 %26, ptr %12, align 8, !tbaa !37
  %30 = load i64, ptr %1, align 8, !tbaa !37
  store i64 %30, ptr %13, align 8, !tbaa !37
  call fastcc void @"_ZSt24__merge_sort_with_bufferISt16reverse_iteratorIN9__gnu_cxx17__normal_iteratorIPNSt7__cxx1112basic_stringIcSt11char_traitsIcESaIcEEESt6vectorIS8_SaIS8_EEEEES9_NS1_5__ops15_Iter_comp_iterIZN12_GLOBAL__N_123BlockAllocationStrategy11InitialSortERKSt3mapIS8_N24cmCTestResourceAllocator8ResourceESt4lessIS8_ESaISt4pairIKS8_SL_EEERSC_E3$_0EEEvT_SY_T0_T1_"(ptr noundef %12, ptr noundef %13, ptr noundef %2, ptr %4)
  br label %31

31:                                               ; preds = %29, %27
  %32 = load i64, ptr %0, align 8, !tbaa !37
  store i64 %32, ptr %14, align 8, !tbaa !37
  store i64 %26, ptr %15, align 8, !tbaa !37
  %33 = load i64, ptr %1, align 8, !tbaa !37
  store i64 %33, ptr %16, align 8, !tbaa !37
  %34 = sub i64 %32, %26
  %35 = ashr exact i64 %34, 5
  %36 = sub i64 %26, %33
  %37 = ashr exact i64 %36, 5
  %38 = ptrtoint ptr %4 to i64
  call fastcc void @"_ZSt16__merge_adaptiveISt16reverse_iteratorIN9__gnu_cxx17__normal_iteratorIPNSt7__cxx1112basic_stringIcSt11char_traitsIcESaIcEEESt6vectorIS8_SaIS8_EEEEElS9_NS1_5__ops15_Iter_comp_iterIZN12_GLOBAL__N_123BlockAllocationStrategy11InitialSortERKSt3mapIS8_N24cmCTestResourceAllocator8ResourceESt4lessIS8_ESaISt4pairIKS8_SL_EEERSC_E3$_0EEEvT_SY_SY_T0_SZ_T1_SZ_T2_"(ptr noundef %14, ptr noundef %15, ptr noundef %16, i64 noundef %35, i64 noundef %37, ptr noundef %2, i64 noundef %3, i64 %38)
  ret void
}